target datalayout = "e-m:e-p270:32:32-p271:32:32-p272:64:64-i64:64-i128:128-f80:128-n8:16:32:64-S128"
target triple = "x86_64-unknown-linux-gnu"

%struct.UText = type { i32, i32, i32, i32, i64, i32, i32, i64, i32, i32, ptr, ptr, ptr, ptr, ptr, ptr, ptr, ptr, i64, i32, i32, i64, i32, i32 }
%struct.UTextFuncs = type { i32, i32, i32, i32, ptr, ptr, ptr, ptr, ptr, ptr, ptr, ptr, ptr, ptr, ptr, ptr }

; Function Attrs: mustprogress uwtable
define i64 @utext_nativeLength_75(ptr noundef %ut) #0 {
entry:
  %ut.addr = alloca ptr, align 8
  store ptr %ut, ptr %ut.addr, align 8
  %0 = load ptr, ptr %ut.addr, align 8
  %pFuncs = getelementptr inbounds %struct.UText, ptr %0, i32 0, i32 11
  %1 = load ptr, ptr %pFuncs, align 8
  %nativeLength = getelementptr inbounds %struct.UTextFuncs, ptr %1, i32 0, i32 5
  %2 = load ptr, ptr %nativeLength, align 8
  %3 = load ptr, ptr %ut.addr, align 8
  %call = call noundef i64 %2(ptr noundef %3)
  ret i64 %call
}

; Function Attrs: mustprogress nounwind uwtable
define internal noundef signext i8 @_ZL9U_SUCCESS10UErrorCode(i32 noundef %code) #1 {
entry:
  %code.addr = alloca i32, align 4
  store i32 %code, ptr %code.addr, align 4
  %0 = load i32, ptr %code.addr, align 4
  %cmp = icmp sle i32 %0, 0
  %conv = zext i1 %cmp to i8
  ret i8 %conv
}

; Function Attrs: mustprogress uwtable
define internal noundef ptr @_ZL13utf8TextCloneP5UTextPKS_aP10UErrorCode(ptr noundef %dest, ptr noundef %src, i8 noundef signext %deep, ptr noundef %status) #0 {
entry:
  %dest.addr = alloca ptr, align 8
  %src.addr = alloca ptr, align 8
  %deep.addr = alloca i8, align 1
  %status.addr = alloca ptr, align 8
  %len = alloca i32, align 4
  %copyStr = alloca ptr, align 8
  store ptr %dest, ptr %dest.addr, align 8
  store ptr %src, ptr %src.addr, align 8
  store i8 %deep, ptr %deep.addr, align 1
  store ptr %status, ptr %status.addr, align 8
  %0 = load ptr, ptr %dest.addr, align 8
  %1 = load ptr, ptr %src.addr, align 8
  %2 = load ptr, ptr %status.addr, align 8
  %call = call noundef ptr @_ZL16shallowTextCloneP5UTextPKS_P10UErrorCode(ptr noundef %0, ptr noundef %1, ptr noundef %2)
  store ptr %call, ptr %dest.addr, align 8
  %3 = load i8, ptr %deep.addr, align 1
  %tobool = icmp ne i8 %3, 0
  br i1 %tobool, label %land.lhs.true, label %if.end10

land.lhs.true:                                    ; preds = %entry
  %4 = load ptr, ptr %status.addr, align 8
  %5 = load i32, ptr %4, align 4
  %call1 = call noundef signext i8 @_ZL9U_SUCCESS10UErrorCode(i32 noundef %5)
  %tobool2 = icmp ne i8 %call1, 0
  br i1 %tobool2, label %if.then, label %if.end10

if.then:                                          ; preds = %land.lhs.true
  %6 = load ptr, ptr %src.addr, align 8
  %call3 = call i64 @utext_nativeLength_75(ptr noundef %6)
  %conv = trunc i64 %call3 to i32
  store i32 %conv, ptr %len, align 4
  %7 = load i32, ptr %len, align 4
  %add = add nsw i32 %7, 1
  %conv4 = sext i32 %add to i64
  %call5 = call noalias ptr @uprv_malloc_75(i64 noundef %conv4) #7
  store ptr %call5, ptr %copyStr, align 8
  %8 = load ptr, ptr %copyStr, align 8
  %cmp = icmp eq ptr %8, null
  br i1 %cmp, label %if.then6, label %if.else

if.then6:                                         ; preds = %if.then
  %9 = load ptr, ptr %status.addr, align 8
  store i32 7, ptr %9, align 4
  br label %if.end

if.else:                                          ; preds = %if.then
  br label %do.body

do.body:                                          ; preds = %if.else
  %10 = load ptr, ptr %copyStr, align 8
  %11 = load ptr, ptr %src.addr, align 8
  %context = getelementptr inbounds %struct.UText, ptr %11, i32 0, i32 13
  %12 = load ptr, ptr %context, align 8
  %13 = load i32, ptr %len, align 4
  %add7 = add nsw i32 %13, 1
  %conv8 = sext i32 %add7 to i64
  call void @llvm.memcpy.p0.p0.i64(ptr align 1 %10, ptr align 1 %12, i64 %conv8, i1 false)
  br label %do.end

do.end:                                           ; preds = %do.body
  %14 = load ptr, ptr %copyStr, align 8
  %15 = load ptr, ptr %dest.addr, align 8
  %context9 = getelementptr inbounds %struct.UText, ptr %15, i32 0, i32 13
  store ptr %14, ptr %context9, align 8
  %16 = load ptr, ptr %dest.addr, align 8
  %providerProperties = getelementptr inbounds %struct.UText, ptr %16, i32 0, i32 2
  %17 = load i32, ptr %providerProperties, align 8
  %or = or i32 %17, 32
  store i32 %or, ptr %providerProperties, align 8
  br label %if.end

if.end:                                           ; preds = %do.end, %if.then6
  br label %if.end10

if.end10:                                         ; preds = %if.end, %land.lhs.true, %entry
  %18 = load ptr, ptr %dest.addr, align 8
  ret ptr %18
}