; Function Attrs: mustprogress uwtable
define internal noundef ptr @_ZL13utf8TextCloneP5UTextPKS_aP10UErrorCode(ptr noundef %dest, ptr noundef %src, i8 noundef signext %deep, ptr nocapture noundef %status) #0 {
entry:
  %call = tail call fastcc noundef ptr @_ZL16shallowTextCloneP5UTextPKS_P10UErrorCode(ptr noundef %dest, ptr noundef %src, ptr noundef %status)
  %tobool.not = icmp eq i8 %deep, 0
  br i1 %tobool.not, label %if.end10, label %land.lhs.true

land.lhs.true:                                    ; preds = %entry
  %0 = load i32, ptr %status, align 4
  %cmp.i = icmp sgt i32 %0, 0
  br i1 %cmp.i, label %if.end10, label %if.then

if.then:                                          ; preds = %land.lhs.true
  %pFuncs.i = getelementptr inbounds i8, ptr %src, i64 56
  %1 = load ptr, ptr %pFuncs.i, align 8
  %nativeLength.i = getelementptr inbounds i8, ptr %1, i64 24
  %2 = load ptr, ptr %nativeLength.i, align 8
  %call.i = tail call noundef i64 %2(ptr noundef %src)
  %add = shl i64 %call.i, 32
  %sext = add i64 %add, 4294967296
  %conv4 = ashr exact i64 %sext, 32
  %call5 = tail call noalias ptr @uprv_malloc_75(i64 noundef %conv4) #13
  %cmp = icmp eq ptr %call5, null
  br i1 %cmp, label %if.then6, label %do.body

if.then6:                                         ; preds = %if.then
  store i32 7, ptr %status, align 4
  br label %if.end10

do.body:                                          ; preds = %if.then
  %context = getelementptr inbounds i8, ptr %src, i64 72
  %3 = load ptr, ptr %context, align 8
  tail call void @llvm.memcpy.p0.p0.i64(ptr nonnull align 1 %call5, ptr align 1 %3, i64 %conv4, i1 false)
  %context9 = getelementptr inbounds i8, ptr %call, i64 72
  store ptr %call5, ptr %context9, align 8
  %providerProperties = getelementptr inbounds i8, ptr %call, i64 8
  %4 = load i32, ptr %providerProperties, align 8
  %or = or i32 %4, 32
  store i32 %or, ptr %providerProperties, align 8
  br label %if.end10

if.end10:                                         ; preds = %if.then6, %do.body, %land.lhs.true, %entry
  ret ptr %call
}